target datalayout = "e-m:e-p270:32:32-p271:32:32-p272:64:64-i64:64-i128:128-f80:128-n8:16:32:64-S128"
target triple = "x86_64-pc-linux-gnu"

%struct._wmem_array_t = type { ptr, ptr, i64, i32, i32, i8 }

; Function Attrs: alwaysinline nounwind
define internal ptr @memset.inline(ptr %0, i32 %1, i64 %2) #5 {
  %4 = alloca ptr, align 8
  %5 = alloca i32, align 4
  %6 = alloca i64, align 8
  store ptr %0, ptr %4, align 8
  store i32 %1, ptr %5, align 4
  store i64 %2, ptr %6, align 8
  %7 = load ptr, ptr %4, align 8
  %8 = load i32, ptr %5, align 4
  %9 = load i64, ptr %6, align 8
  %10 = load ptr, ptr %4, align 8
  %11 = call i64 @llvm.objectsize.i64.p0(ptr %10, i1 false, i1 true, i1 true)
  %12 = call ptr @__memset_chk(ptr noundef %7, i32 noundef %8, i64 noundef %9, i64 noundef %11) #11
  ret ptr %12
}

; Function Attrs: null_pointer_is_valid sspstrong uwtable
define internal void @wmem_array_write_null_terminator(ptr noundef %0) #0 {
  %2 = alloca ptr, align 8
  store ptr %0, ptr %2, align 8
  %3 = load ptr, ptr %2, align 8
  %4 = getelementptr inbounds nuw %struct._wmem_array_t, ptr %3, i32 0, i32 5
  %5 = load i8, ptr %4, align 8, !range !8, !noundef !9
  %6 = trunc i8 %5 to i1
  br i1 %6, label %7, label %25

7:                                                ; preds = %1
  %8 = load ptr, ptr %2, align 8
  call void @wmem_array_grow(ptr noundef %8, i32 noundef 1)
  %9 = load ptr, ptr %2, align 8
  %10 = getelementptr inbounds nuw %struct._wmem_array_t, ptr %9, i32 0, i32 1
  %11 = load ptr, ptr %10, align 8
  %12 = load ptr, ptr %2, align 8
  %13 = getelementptr inbounds nuw %struct._wmem_array_t, ptr %12, i32 0, i32 3
  %14 = load i32, ptr %13, align 8
  %15 = zext i32 %14 to i64
  %16 = load ptr, ptr %2, align 8
  %17 = getelementptr inbounds nuw %struct._wmem_array_t, ptr %16, i32 0, i32 2
  %18 = load i64, ptr %17, align 8
  %19 = mul i64 %15, %18
  %20 = getelementptr i8, ptr %11, i64 %19
  %21 = load ptr, ptr %2, align 8
  %22 = getelementptr inbounds nuw %struct._wmem_array_t, ptr %21, i32 0, i32 2
  %23 = load i64, ptr %22, align 8
  %24 = call ptr @memset.inline(ptr noundef %20, i32 noundef 0, i64 noundef %23) #11
  br label %25

25:                                               ; preds = %7, %1
  ret void
}

; Function Attrs: alwaysinline nounwind
define internal ptr @memcpy.inline(ptr noalias %0, ptr noalias %1, i64 %2) #5 {
  %4 = alloca ptr, align 8
  %5 = alloca ptr, align 8
  %6 = alloca i64, align 8
  store ptr %0, ptr %4, align 8
  store ptr %1, ptr %5, align 8
  store i64 %2, ptr %6, align 8
  %7 = load ptr, ptr %4, align 8
  %8 = load ptr, ptr %5, align 8
  %9 = load i64, ptr %6, align 8
  %10 = load ptr, ptr %4, align 8
  %11 = call i64 @llvm.objectsize.i64.p0(ptr %10, i1 false, i1 true, i1 true)
  %12 = call ptr @__memcpy_chk(ptr noundef %7, ptr noundef %8, i64 noundef %9, i64 noundef %11) #11
  ret ptr %12
}

; Function Attrs: null_pointer_is_valid sspstrong uwtable
define void @wmem_array_grow(ptr noundef %0, i32 noundef %1) #0 {
  %3 = alloca ptr, align 8
  %4 = alloca i32, align 4
  %5 = alloca i32, align 4
  %6 = alloca i32, align 4
  %7 = alloca i32, align 4
  store ptr %0, ptr %3, align 8
  store i32 %1, ptr %4, align 4
  call void @llvm.lifetime.start.p0(i64 4, ptr %5) #11
  call void @llvm.lifetime.start.p0(i64 4, ptr %6) #11
  %8 = load ptr, ptr %3, align 8
  %9 = getelementptr inbounds nuw %struct._wmem_array_t, ptr %8, i32 0, i32 4
  %10 = load i32, ptr %9, align 4
  store i32 %10, ptr %5, align 4
  %11 = load ptr, ptr %3, align 8
  %12 = getelementptr inbounds nuw %struct._wmem_array_t, ptr %11, i32 0, i32 3
  %13 = load i32, ptr %12, align 8
  %14 = load i32, ptr %4, align 4
  %15 = add i32 %13, %14
  store i32 %15, ptr %6, align 4
  br label %16

16:                                               ; preds = %20, %2
  %17 = load i32, ptr %5, align 4
  %18 = load i32, ptr %6, align 4
  %19 = icmp ult i32 %17, %18
  br i1 %19, label %20, label %23

20:                                               ; preds = %16
  %21 = load i32, ptr %5, align 4
  %22 = mul i32 %21, 2
  store i32 %22, ptr %5, align 4
  br label %16, !llvm.loop !6

23:                                               ; preds = %16
  %24 = load i32, ptr %5, align 4
  %25 = load ptr, ptr %3, align 8
  %26 = getelementptr inbounds nuw %struct._wmem_array_t, ptr %25, i32 0, i32 4
  %27 = load i32, ptr %26, align 4
  %28 = icmp eq i32 %24, %27
  br i1 %28, label %29, label %30

29:                                               ; preds = %23
  store i32 1, ptr %7, align 4
  br label %49

30:                                               ; preds = %23
  %31 = load ptr, ptr %3, align 8
  %32 = getelementptr inbounds nuw %struct._wmem_array_t, ptr %31, i32 0, i32 0
  %33 = load ptr, ptr %32, align 8
  %34 = load ptr, ptr %3, align 8
  %35 = getelementptr inbounds nuw %struct._wmem_array_t, ptr %34, i32 0, i32 1
  %36 = load ptr, ptr %35, align 8
  %37 = load i32, ptr %5, align 4
  %38 = zext i32 %37 to i64
  %39 = load ptr, ptr %3, align 8
  %40 = getelementptr inbounds nuw %struct._wmem_array_t, ptr %39, i32 0, i32 2
  %41 = load i64, ptr %40, align 8
  %42 = mul i64 %38, %41
  %43 = call ptr @wmem_realloc(ptr noundef %33, ptr noundef %36, i64 noundef %42) #13
  %44 = load ptr, ptr %3, align 8
  %45 = getelementptr inbounds nuw %struct._wmem_array_t, ptr %44, i32 0, i32 1
  store ptr %43, ptr %45, align 8
  %46 = load i32, ptr %5, align 4
  %47 = load ptr, ptr %3, align 8
  %48 = getelementptr inbounds nuw %struct._wmem_array_t, ptr %47, i32 0, i32 4
  store i32 %46, ptr %48, align 4
  store i32 0, ptr %7, align 4
  br label %49

49:                                               ; preds = %30, %29
  call void @llvm.lifetime.end.p0(i64 4, ptr %6) #11
  call void @llvm.lifetime.end.p0(i64 4, ptr %5) #11
  %50 = load i32, ptr %7, align 4
  switch i32 %50, label %52 [
    i32 0, label %51
    i32 1, label %51
  ]

51:                                               ; preds = %49, %49
  ret void

52:                                               ; preds = %49
  unreachable
}

; Function Attrs: null_pointer_is_valid sspstrong uwtable
define void @wmem_array_append(ptr noundef %0, ptr noundef %1, i32 noundef %2) #0 {
  %4 = alloca ptr, align 8
  %5 = alloca ptr, align 8
  %6 = alloca i32, align 4
  store ptr %0, ptr %4, align 8
  store ptr %1, ptr %5, align 8
  store i32 %2, ptr %6, align 4
  %7 = load ptr, ptr %4, align 8
  %8 = load i32, ptr %6, align 4
  call void @wmem_array_grow(ptr noundef %7, i32 noundef %8)
  %9 = load ptr, ptr %4, align 8
  %10 = getelementptr inbounds nuw %struct._wmem_array_t, ptr %9, i32 0, i32 1
  %11 = load ptr, ptr %10, align 8
  %12 = load ptr, ptr %4, align 8
  %13 = getelementptr inbounds nuw %struct._wmem_array_t, ptr %12, i32 0, i32 3
  %14 = load i32, ptr %13, align 8
  %15 = zext i32 %14 to i64
  %16 = load ptr, ptr %4, align 8
  %17 = getelementptr inbounds nuw %struct._wmem_array_t, ptr %16, i32 0, i32 2
  %18 = load i64, ptr %17, align 8
  %19 = mul i64 %15, %18
  %20 = getelementptr i8, ptr %11, i64 %19
  %21 = load ptr, ptr %5, align 8
  %22 = load i32, ptr %6, align 4
  %23 = zext i32 %22 to i64
  %24 = load ptr, ptr %4, align 8
  %25 = getelementptr inbounds nuw %struct._wmem_array_t, ptr %24, i32 0, i32 2
  %26 = load i64, ptr %25, align 8
  %27 = mul i64 %23, %26
  %28 = call ptr @memcpy.inline(ptr noundef %20, ptr noundef %21, i64 noundef %27) #11
  %29 = load i32, ptr %6, align 4
  %30 = load ptr, ptr %4, align 8
  %31 = getelementptr inbounds nuw %struct._wmem_array_t, ptr %30, i32 0, i32 3
  %32 = load i32, ptr %31, align 8
  %33 = add i32 %32, %29
  store i32 %33, ptr %31, align 8
  %34 = load ptr, ptr %4, align 8
  call void @wmem_array_write_null_terminator(ptr noundef %34)
  ret void
}