; Function Attrs: null_pointer_is_valid sspstrong uwtable
define void @wmem_array_append(ptr noundef captures(none) %0, ptr noundef readonly captures(none) %1, i32 noundef %2) local_unnamed_addr #0 {
  %4 = getelementptr inbounds nuw i8, ptr %0, i64 28
  %5 = load i32, ptr %4, align 4
  %6 = getelementptr inbounds nuw i8, ptr %0, i64 24
  %7 = load i32, ptr %6, align 8
  %8 = add i32 %7, %2
  br label %9

9:                                                ; preds = %9, %3
  %.0.i = phi i32 [ %5, %3 ], [ %11, %9 ]
  %10 = icmp ult i32 %.0.i, %8
  %11 = shl i32 %.0.i, 1
  br i1 %10, label %9, label %12, !llvm.loop !6

12:                                               ; preds = %9
  %13 = icmp eq i32 %.0.i, %5
  br i1 %13, label %.wmem_array_grow.exit_crit_edge, label %14

.wmem_array_grow.exit_crit_edge:                  ; preds = %12
  %.phi.trans.insert = getelementptr inbounds nuw i8, ptr %0, i64 8
  %.pre = load ptr, ptr %.phi.trans.insert, align 8
  br label %wmem_array_grow.exit

14:                                               ; preds = %12
  %15 = load ptr, ptr %0, align 8
  %16 = getelementptr inbounds nuw i8, ptr %0, i64 8
  %17 = load ptr, ptr %16, align 8
  %18 = zext i32 %.0.i to i64
  %19 = getelementptr inbounds nuw i8, ptr %0, i64 16
  %20 = load i64, ptr %19, align 8
  %21 = mul i64 %20, %18
  %22 = tail call ptr @wmem_realloc(ptr noundef %15, ptr noundef %17, i64 noundef %21) #13
  store ptr %22, ptr %16, align 8
  store i32 %.0.i, ptr %4, align 4
  %.pre10 = load i32, ptr %6, align 8
  br label %wmem_array_grow.exit

wmem_array_grow.exit:                             ; preds = %.wmem_array_grow.exit_crit_edge, %14
  %23 = phi i32 [ %7, %.wmem_array_grow.exit_crit_edge ], [ %.pre10, %14 ]
  %24 = phi ptr [ %.pre, %.wmem_array_grow.exit_crit_edge ], [ %22, %14 ]
  %25 = getelementptr inbounds nuw i8, ptr %0, i64 8
  %26 = zext i32 %23 to i64
  %27 = getelementptr inbounds nuw i8, ptr %0, i64 16
  %28 = load i64, ptr %27, align 8
  %29 = mul i64 %28, %26
  %30 = getelementptr i8, ptr %24, i64 %29
  %31 = zext i32 %2 to i64
  %32 = mul i64 %28, %31
  tail call void @llvm.memcpy.p0.p0.i64(ptr noundef align 1 %30, ptr noundef align 1 %1, i64 noundef %32, i1 noundef false) #14
  %33 = load i32, ptr %6, align 8
  %34 = add i32 %33, %2
  store i32 %34, ptr %6, align 8
  %35 = getelementptr inbounds nuw i8, ptr %0, i64 32
  %36 = load i8, ptr %35, align 8, !range !8, !noundef !9
  %37 = trunc nuw i8 %36 to i1
  br i1 %37, label %38, label %wmem_array_write_null_terminator.exit

38:                                               ; preds = %wmem_array_grow.exit
  %39 = load i32, ptr %4, align 4
  %40 = add i32 %34, 1
  br label %41

41:                                               ; preds = %41, %38
  %.0.i.i = phi i32 [ %39, %38 ], [ %43, %41 ]
  %42 = icmp ult i32 %.0.i.i, %40
  %43 = shl i32 %.0.i.i, 1
  br i1 %42, label %41, label %44, !llvm.loop !6

44:                                               ; preds = %41
  %45 = icmp eq i32 %.0.i.i, %39
  br i1 %45, label %.wmem_array_grow.exit_crit_edge.i, label %46

.wmem_array_grow.exit_crit_edge.i:                ; preds = %44
  %.pre.i = load ptr, ptr %25, align 8
  br label %wmem_array_grow.exit.i

46:                                               ; preds = %44
  %47 = load ptr, ptr %0, align 8
  %48 = load ptr, ptr %25, align 8
  %49 = zext i32 %.0.i.i to i64
  %50 = load i64, ptr %27, align 8
  %51 = mul i64 %50, %49
  %52 = tail call ptr @wmem_realloc(ptr noundef %47, ptr noundef %48, i64 noundef %51) #13
  store ptr %52, ptr %25, align 8
  store i32 %.0.i.i, ptr %4, align 4
  %.pre6.i = load i32, ptr %6, align 8
  br label %wmem_array_grow.exit.i

wmem_array_grow.exit.i:                           ; preds = %46, %.wmem_array_grow.exit_crit_edge.i
  %53 = phi i32 [ %34, %.wmem_array_grow.exit_crit_edge.i ], [ %.pre6.i, %46 ]
  %54 = phi ptr [ %.pre.i, %.wmem_array_grow.exit_crit_edge.i ], [ %52, %46 ]
  %55 = zext i32 %53 to i64
  %56 = load i64, ptr %27, align 8
  %57 = mul i64 %56, %55
  %58 = getelementptr i8, ptr %54, i64 %57
  tail call void @llvm.memset.p0.i64(ptr noundef align 1 %58, i8 noundef 0, i64 noundef %56, i1 noundef false) #14
  br label %wmem_array_write_null_terminator.exit

wmem_array_write_null_terminator.exit:            ; preds = %wmem_array_grow.exit, %wmem_array_grow.exit.i
  ret void
}